; Function Attrs: nounwind uwtable
define noalias noundef ptr @Acb_NtkFindNodes2(ptr noundef captures(none) %0) local_unnamed_addr #0 {
  %2 = tail call noalias dereferenceable_or_null(16) ptr @malloc(i64 noundef 16) #26
  %3 = getelementptr inbounds nuw i8, ptr %2, i64 4
  store i32 0, ptr %3, align 4, !tbaa !27
  store i32 1000, ptr %2, align 8, !tbaa !28
  %4 = tail call noalias dereferenceable_or_null(4000) ptr @malloc(i64 noundef 4000) #26
  %5 = getelementptr inbounds nuw i8, ptr %2, i64 8
  store ptr %4, ptr %5, align 8, !tbaa !21
  %6 = getelementptr i8, ptr %0, i64 260
  %.val.i = load i32, ptr %6, align 4, !tbaa !27
  %7 = icmp slt i32 %.val.i, 1
  br i1 %7, label %8, label %Acb_NtkIncTravId.exit

8:                                                ; preds = %1
  %9 = getelementptr inbounds nuw i8, ptr %0, i64 256
  %10 = getelementptr inbounds nuw i8, ptr %0, i64 112
  %.val.i.i = load i32, ptr %10, align 8, !tbaa !29
  %11 = load i32, ptr %9, align 8, !tbaa !28
  %.not.i.i.i.i = icmp slt i32 %11, %.val.i.i
  br i1 %.not.i.i.i.i, label %12, label %Vec_IntGrow.exit.i.i.i

12:                                               ; preds = %8
  %13 = getelementptr inbounds nuw i8, ptr %0, i64 264
  %14 = load ptr, ptr %13, align 8, !tbaa !21
  %.not9.i.i.i.i = icmp eq ptr %14, null
  %15 = sext i32 %.val.i.i to i64
  %16 = shl nsw i64 %15, 2
  br i1 %.not9.i.i.i.i, label %19, label %17

17:                                               ; preds = %12
  %18 = tail call ptr @realloc(ptr noundef nonnull %14, i64 noundef %16) #25
  br label %21

19:                                               ; preds = %12
  %20 = tail call noalias ptr @malloc(i64 noundef %16) #26
  br label %21

21:                                               ; preds = %19, %17
  %22 = phi ptr [ %18, %17 ], [ %20, %19 ]
  store ptr %22, ptr %13, align 8, !tbaa !21
  store i32 %.val.i.i, ptr %9, align 8, !tbaa !28
  br label %Vec_IntGrow.exit.i.i.i

Vec_IntGrow.exit.i.i.i:                           ; preds = %21, %8
  %23 = icmp sgt i32 %.val.i.i, 0
  br i1 %23, label %.lr.ph.i.i.i, label %Acb_NtkCleanObjTravs.exit.i

.lr.ph.i.i.i:                                     ; preds = %Vec_IntGrow.exit.i.i.i
  %24 = getelementptr inbounds nuw i8, ptr %0, i64 264
  %25 = load ptr, ptr %24, align 8, !tbaa !21
  %wide.trip.count.i.i.i = zext nneg i32 %.val.i.i to i64
  %26 = shl nuw nsw i64 %wide.trip.count.i.i.i, 2
  tail call void @llvm.memset.p0.i64(ptr align 4 %25, i8 0, i64 %26, i1 false), !tbaa !22
  br label %Acb_NtkCleanObjTravs.exit.i

Acb_NtkCleanObjTravs.exit.i:                      ; preds = %.lr.ph.i.i.i, %Vec_IntGrow.exit.i.i.i
  store i32 %.val.i.i, ptr %6, align 4, !tbaa !27
  br label %Acb_NtkIncTravId.exit

Acb_NtkIncTravId.exit:                            ; preds = %1, %Acb_NtkCleanObjTravs.exit.i
  %27 = getelementptr inbounds nuw i8, ptr %0, i64 96
  %28 = load i32, ptr %27, align 8, !tbaa !3
  %29 = add nsw i32 %28, 1
  store i32 %29, ptr %27, align 8, !tbaa !3
  %30 = getelementptr i8, ptr %0, i64 44
  %.val13 = load i32, ptr %30, align 4, !tbaa !27
  %31 = icmp sgt i32 %.val13, 0
  br i1 %31, label %.lr.ph, label %.critedge

.lr.ph:                                           ; preds = %Acb_NtkIncTravId.exit
  %32 = getelementptr i8, ptr %0, i64 48
  %33 = getelementptr i8, ptr %0, i64 136
  %34 = getelementptr i8, ptr %0, i64 152
  br label %35

35:                                               ; preds = %.lr.ph, %35
  %indvars.iv = phi i64 [ 0, %.lr.ph ], [ %indvars.iv.next, %35 ]
  %.val10 = load ptr, ptr %32, align 8, !tbaa !21
  %36 = getelementptr inbounds nuw i32, ptr %.val10, i64 %indvars.iv
  %37 = load i32, ptr %36, align 4, !tbaa !22
  %.val11 = load ptr, ptr %33, align 8, !tbaa !21
  %.val12 = load ptr, ptr %34, align 8, !tbaa !21
  %38 = sext i32 %37 to i64
  %39 = getelementptr inbounds i32, ptr %.val11, i64 %38
  %40 = load i32, ptr %39, align 4, !tbaa !22
  %41 = sext i32 %40 to i64
  %42 = getelementptr inbounds i32, ptr %.val12, i64 %41
  %43 = getelementptr inbounds nuw i8, ptr %42, i64 4
  %44 = load i32, ptr %43, align 4, !tbaa !22
  tail call void @Acb_NtkFindNodes2_rec(ptr noundef nonnull %0, i32 noundef %44, ptr noundef nonnull %2)
  %indvars.iv.next = add nuw nsw i64 %indvars.iv, 1
  %.val = load i32, ptr %30, align 4, !tbaa !27
  %45 = sext i32 %.val to i64
  %46 = icmp slt i64 %indvars.iv.next, %45
  br i1 %46, label %35, label %.critedge, !llvm.loop !134

.critedge:                                        ; preds = %35, %Acb_NtkIncTravId.exit
  ret ptr %2
}